target datalayout = "e-m:e-p270:32:32-p271:32:32-p272:64:64-i64:64-i128:128-f80:128-n8:16:32:64-S128"
target triple = "x86_64-pc-linux-gnu"

%struct.zend_shared_memory_handlers = type { ptr, ptr, ptr }
%struct._zend_smm_shared_globals = type { ptr, i32, i64, i64, i8, %struct._zend_shared_memory_state, ptr, ptr, i64 }
%struct._zend_shared_memory_state = type { ptr, i64 }

@lock_file = hidden global i32 -1, align 4
@smm_shared_globals = hidden global ptr null, align 8
@g_shared_alloc_handler = internal global ptr null, align 8

; Function Attrs: nounwind uwtable
define internal void @copy_shared_segments(ptr noundef %0, ptr noundef %1, i32 noundef %2, i32 noundef %3) #0 {
  %5 = alloca ptr, align 8
  %6 = alloca ptr, align 8
  %7 = alloca i32, align 4
  %8 = alloca i32, align 4
  %9 = alloca ptr, align 8
  %10 = alloca ptr, align 8
  %11 = alloca ptr, align 8
  %12 = alloca i32, align 4
  store ptr %0, ptr %5, align 8
  store ptr %1, ptr %6, align 8
  store i32 %2, ptr %7, align 4
  store i32 %3, ptr %8, align 4
  %13 = load ptr, ptr %5, align 8
  store ptr %13, ptr %9, align 8
  %14 = load ptr, ptr %5, align 8
  %15 = load i32, ptr %7, align 4
  %16 = sext i32 %15 to i64
  %17 = mul i64 %16, 8
  %18 = getelementptr inbounds i8, ptr %14, i64 %17
  store ptr %18, ptr %10, align 8
  %19 = load ptr, ptr %6, align 8
  store ptr %19, ptr %11, align 8
  store i32 0, ptr %12, align 4
  br label %20

20:                                               ; preds = %42, %4
  %21 = load i32, ptr %12, align 4
  %22 = load i32, ptr %7, align 4
  %23 = icmp slt i32 %21, %22
  br i1 %23, label %24, label %45

24:                                               ; preds = %20
  %25 = load ptr, ptr %10, align 8
  %26 = load ptr, ptr %9, align 8
  %27 = load i32, ptr %12, align 4
  %28 = sext i32 %27 to i64
  %29 = getelementptr inbounds ptr, ptr %26, i64 %28
  store ptr %25, ptr %29, align 8
  %30 = load ptr, ptr %10, align 8
  %31 = load ptr, ptr %11, align 8
  %32 = load i32, ptr %8, align 4
  %33 = sext i32 %32 to i64
  call void @llvm.memcpy.p0.p0.i64(ptr align 1 %30, ptr align 1 %31, i64 %33, i1 false)
  %34 = load ptr, ptr %10, align 8
  %35 = load i32, ptr %8, align 4
  %36 = sext i32 %35 to i64
  %37 = getelementptr inbounds i8, ptr %34, i64 %36
  store ptr %37, ptr %10, align 8
  %38 = load ptr, ptr %11, align 8
  %39 = load i32, ptr %8, align 4
  %40 = sext i32 %39 to i64
  %41 = getelementptr inbounds i8, ptr %38, i64 %40
  store ptr %41, ptr %11, align 8
  br label %42

42:                                               ; preds = %24
  %43 = load i32, ptr %12, align 4
  %44 = add nsw i32 %43, 1
  store i32 %44, ptr %12, align 4
  br label %20

45:                                               ; preds = %20
  ret void
}

; Function Attrs: nounwind uwtable
define hidden void @zend_shared_alloc_shutdown() #0 {
  %1 = alloca ptr, align 8
  %2 = alloca [16 x ptr], align 16
  %3 = alloca i64, align 8
  %4 = alloca %struct._zend_smm_shared_globals, align 8
  %5 = alloca i32, align 4
  %6 = load ptr, ptr @smm_shared_globals, align 8
  call void @llvm.memcpy.p0.p0.i64(ptr align 8 %4, ptr align 8 %6, i64 80, i1 false)
  store ptr %4, ptr @smm_shared_globals, align 8
  %7 = load ptr, ptr @smm_shared_globals, align 8
  %8 = getelementptr inbounds %struct._zend_smm_shared_globals, ptr %7, i32 0, i32 1
  %9 = load i32, ptr %8, align 8
  %10 = sext i32 %9 to i64
  %11 = load ptr, ptr @g_shared_alloc_handler, align 8
  %12 = getelementptr inbounds %struct.zend_shared_memory_handlers, ptr %11, i32 0, i32 2
  %13 = load ptr, ptr %12, align 8
  %14 = call i64 %13()
  %15 = add i64 %14, 8
  %16 = mul i64 %10, %15
  store i64 %16, ptr %3, align 8
  %17 = load i64, ptr %3, align 8
  %18 = icmp ugt i64 %17, 16
  br i1 %18, label %19, label %22

19:                                               ; preds = %0
  %20 = load i64, ptr %3, align 8
  %21 = call noalias ptr @malloc(i64 noundef %20) #14
  store ptr %21, ptr %1, align 8
  br label %24

22:                                               ; preds = %0
  %23 = getelementptr inbounds [16 x ptr], ptr %2, i64 0, i64 0
  store ptr %23, ptr %1, align 8
  br label %24

24:                                               ; preds = %22, %19
  %25 = load ptr, ptr %1, align 8
  %26 = load ptr, ptr @smm_shared_globals, align 8
  %27 = getelementptr inbounds %struct._zend_smm_shared_globals, ptr %26, i32 0, i32 0
  %28 = load ptr, ptr %27, align 8
  %29 = getelementptr inbounds ptr, ptr %28, i64 0
  %30 = load ptr, ptr %29, align 8
  %31 = load ptr, ptr @smm_shared_globals, align 8
  %32 = getelementptr inbounds %struct._zend_smm_shared_globals, ptr %31, i32 0, i32 1
  %33 = load i32, ptr %32, align 8
  %34 = load ptr, ptr @g_shared_alloc_handler, align 8
  %35 = getelementptr inbounds %struct.zend_shared_memory_handlers, ptr %34, i32 0, i32 2
  %36 = load ptr, ptr %35, align 8
  %37 = call i64 %36()
  %38 = trunc i64 %37 to i32
  call void @copy_shared_segments(ptr noundef %25, ptr noundef %30, i32 noundef %33, i32 noundef %38)
  %39 = load ptr, ptr %1, align 8
  %40 = load ptr, ptr @smm_shared_globals, align 8
  %41 = getelementptr inbounds %struct._zend_smm_shared_globals, ptr %40, i32 0, i32 0
  store ptr %39, ptr %41, align 8
  store i32 0, ptr %5, align 4
  br label %42

42:                                               ; preds = %60, %24
  %43 = load i32, ptr %5, align 4
  %44 = load ptr, ptr @smm_shared_globals, align 8
  %45 = getelementptr inbounds %struct._zend_smm_shared_globals, ptr %44, i32 0, i32 1
  %46 = load i32, ptr %45, align 8
  %47 = icmp slt i32 %43, %46
  br i1 %47, label %48, label %63

48:                                               ; preds = %42
  %49 = load ptr, ptr @g_shared_alloc_handler, align 8
  %50 = getelementptr inbounds %struct.zend_shared_memory_handlers, ptr %49, i32 0, i32 1
  %51 = load ptr, ptr %50, align 8
  %52 = load ptr, ptr @smm_shared_globals, align 8
  %53 = getelementptr inbounds %struct._zend_smm_shared_globals, ptr %52, i32 0, i32 0
  %54 = load ptr, ptr %53, align 8
  %55 = load i32, ptr %5, align 4
  %56 = sext i32 %55 to i64
  %57 = getelementptr inbounds ptr, ptr %54, i64 %56
  %58 = load ptr, ptr %57, align 8
  %59 = call i32 %51(ptr noundef %58)
  br label %60

60:                                               ; preds = %48
  %61 = load i32, ptr %5, align 4
  %62 = add nsw i32 %61, 1
  store i32 %62, ptr %5, align 4
  br label %42

63:                                               ; preds = %42
  %64 = load i64, ptr %3, align 8
  %65 = icmp ugt i64 %64, 16
  br i1 %65, label %66, label %70

66:                                               ; preds = %63
  %67 = load ptr, ptr @smm_shared_globals, align 8
  %68 = getelementptr inbounds %struct._zend_smm_shared_globals, ptr %67, i32 0, i32 0
  %69 = load ptr, ptr %68, align 8
  call void @free(ptr noundef %69) #10
  br label %70

70:                                               ; preds = %66, %63
  %71 = load ptr, ptr @smm_shared_globals, align 8
  %72 = getelementptr inbounds %struct._zend_smm_shared_globals, ptr %71, i32 0, i32 0
  store ptr null, ptr %72, align 8
  store ptr null, ptr @g_shared_alloc_handler, align 8
  %73 = load i32, ptr @lock_file, align 4
  %74 = call i32 @close(i32 noundef %73)
  ret void
}