; Function Attrs: nounwind uwtable
define hidden void @zend_shared_alloc_shutdown() local_unnamed_addr #0 {
  %1 = alloca [16 x ptr], align 16
  %2 = alloca %struct._zend_smm_shared_globals, align 8
  %3 = load ptr, ptr @smm_shared_globals, align 8
  call void @llvm.memcpy.p0.p0.i64(ptr noundef nonnull align 8 dereferenceable(80) %2, ptr noundef nonnull align 8 dereferenceable(80) %3, i64 80, i1 false)
  store ptr %2, ptr @smm_shared_globals, align 8
  %4 = getelementptr inbounds i8, ptr %2, i64 8
  %5 = load i32, ptr %4, align 8
  %6 = sext i32 %5 to i64
  %7 = load ptr, ptr @g_shared_alloc_handler, align 8
  %8 = getelementptr inbounds i8, ptr %7, i64 16
  %9 = load ptr, ptr %8, align 8
  %10 = call i64 %9() #20
  %11 = add i64 %10, 8
  %12 = mul i64 %11, %6
  %13 = icmp ugt i64 %12, 16
  br i1 %13, label %14, label %16

14:                                               ; preds = %0
  %15 = call noalias ptr @malloc(i64 noundef %12) #24
  br label %16

16:                                               ; preds = %0, %14
  %.07 = phi ptr [ %15, %14 ], [ %1, %0 ]
  %17 = load ptr, ptr @smm_shared_globals, align 8
  %18 = load ptr, ptr %17, align 8
  %19 = load ptr, ptr %18, align 8
  %20 = getelementptr inbounds i8, ptr %17, i64 8
  %21 = load i32, ptr %20, align 8
  %22 = load ptr, ptr @g_shared_alloc_handler, align 8
  %23 = getelementptr inbounds i8, ptr %22, i64 16
  %24 = load ptr, ptr %23, align 8
  %25 = call i64 %24() #20
  %26 = icmp sgt i32 %21, 0
  br i1 %26, label %.lr.ph.i, label %copy_shared_segments.exit

.lr.ph.i:                                         ; preds = %16
  %27 = zext nneg i32 %21 to i64
  %28 = shl nuw nsw i64 %27, 3
  %29 = getelementptr inbounds i8, ptr %.07, i64 %28
  %sext = shl i64 %25, 32
  %30 = ashr exact i64 %sext, 32
  br label %31

31:                                               ; preds = %31, %.lr.ph.i
  %indvars.iv.i = phi i64 [ 0, %.lr.ph.i ], [ %indvars.iv.next.i, %31 ]
  %.01619.i = phi ptr [ %19, %.lr.ph.i ], [ %34, %31 ]
  %.01718.i = phi ptr [ %29, %.lr.ph.i ], [ %33, %31 ]
  %32 = getelementptr inbounds ptr, ptr %.07, i64 %indvars.iv.i
  store ptr %.01718.i, ptr %32, align 8
  call void @llvm.memcpy.p0.p0.i64(ptr align 1 %.01718.i, ptr align 1 %.01619.i, i64 %30, i1 false)
  %33 = getelementptr inbounds i8, ptr %.01718.i, i64 %30
  %34 = getelementptr inbounds i8, ptr %.01619.i, i64 %30
  %indvars.iv.next.i = add nuw nsw i64 %indvars.iv.i, 1
  %exitcond.not.i = icmp eq i64 %indvars.iv.next.i, %27
  br i1 %exitcond.not.i, label %copy_shared_segments.exit, label %31

copy_shared_segments.exit:                        ; preds = %31, %16
  %35 = load ptr, ptr @smm_shared_globals, align 8
  store ptr %.07, ptr %35, align 8
  %36 = load ptr, ptr @smm_shared_globals, align 8
  %37 = getelementptr inbounds i8, ptr %36, i64 8
  %38 = load i32, ptr %37, align 8
  %39 = icmp sgt i32 %38, 0
  br i1 %39, label %.lr.ph, label %._crit_edge

.lr.ph:                                           ; preds = %copy_shared_segments.exit, %.lr.ph
  %indvars.iv = phi i64 [ %indvars.iv.next, %.lr.ph ], [ 0, %copy_shared_segments.exit ]
  %40 = phi ptr [ %48, %.lr.ph ], [ %36, %copy_shared_segments.exit ]
  %41 = load ptr, ptr @g_shared_alloc_handler, align 8
  %42 = getelementptr inbounds i8, ptr %41, i64 8
  %43 = load ptr, ptr %42, align 8
  %44 = load ptr, ptr %40, align 8
  %45 = getelementptr inbounds ptr, ptr %44, i64 %indvars.iv
  %46 = load ptr, ptr %45, align 8
  %47 = call i32 %43(ptr noundef %46) #20
  %indvars.iv.next = add nuw nsw i64 %indvars.iv, 1
  %48 = load ptr, ptr @smm_shared_globals, align 8
  %49 = getelementptr inbounds i8, ptr %48, i64 8
  %50 = load i32, ptr %49, align 8
  %51 = sext i32 %50 to i64
  %52 = icmp slt i64 %indvars.iv.next, %51
  br i1 %52, label %.lr.ph, label %._crit_edge

._crit_edge:                                      ; preds = %.lr.ph, %copy_shared_segments.exit
  %.lcssa = phi ptr [ %36, %copy_shared_segments.exit ], [ %48, %.lr.ph ]
  br i1 %13, label %53, label %55

53:                                               ; preds = %._crit_edge
  %54 = load ptr, ptr %.lcssa, align 8
  call void @free(ptr noundef %54) #20
  %.pre = load ptr, ptr @smm_shared_globals, align 8
  br label %55

55:                                               ; preds = %53, %._crit_edge
  %56 = phi ptr [ %.pre, %53 ], [ %.lcssa, %._crit_edge ]
  store ptr null, ptr %56, align 8
  store ptr null, ptr @g_shared_alloc_handler, align 8
  %57 = load i32, ptr @lock_file, align 4
  %58 = call i32 @close(i32 noundef %57) #20
  ret void
}